; Function Attrs: mustprogress uwtable
define hidden void @_ZN4cvc58internal6theory4bags19BagsRewriteResponseC2ENS0_12NodeTemplateILb1EEENS2_7RewriteE(ptr noundef nonnull writeonly align 8 captures(none) dereferenceable(12) initializes((0, 12)) %0, ptr noundef readonly captures(none) %1, i32 noundef %2) unnamed_addr #3 align 2 {
  %4 = load ptr, ptr %1, align 8, !tbaa !6
  store ptr %4, ptr %0, align 8, !tbaa !6
  %5 = load i64, ptr %4, align 8
  %6 = lshr i64 %5, 40
  %7 = trunc nuw nsw i64 %6 to i32
  %8 = and i32 %7, 1048575
  %9 = icmp samesign ult i32 %8, 1048574
  br i1 %9, label %10, label %15, !prof !12

10:                                               ; preds = %3
  %11 = add i64 %5, 1099511627776
  %12 = and i64 %11, 1152920405095219200
  %13 = and i64 %5, -1152920405095219201
  %14 = or disjoint i64 %12, %13
  store i64 %14, ptr %4, align 8
  br label %_ZN4cvc58internal12NodeTemplateILb1EEC2ERKS2_.exit

15:                                               ; preds = %3
  %16 = icmp eq i32 %8, 1048574
  br i1 %16, label %17, label %_ZN4cvc58internal12NodeTemplateILb1EEC2ERKS2_.exit, !prof !13

17:                                               ; preds = %15
  %18 = or i64 %5, 1152920405095219200
  store i64 %18, ptr %4, align 8
  tail call void @_ZN4cvc58internal4expr9NodeValue20markRefCountMaxedOutEv(ptr noundef nonnull align 8 dereferenceable(24) %4)
  br label %_ZN4cvc58internal12NodeTemplateILb1EEC2ERKS2_.exit

_ZN4cvc58internal12NodeTemplateILb1EEC2ERKS2_.exit: ; preds = %10, %15, %17
  %19 = getelementptr inbounds nuw i8, ptr %0, i64 8
  store i32 %2, ptr %19, align 8, !tbaa !14
  ret void
}